target datalayout = "e-m:e-p270:32:32-p271:32:32-p272:64:64-i64:64-i128:128-f80:128-n8:16:32:64-S128"
target triple = "x86_64-pc-linux-gnu"

%struct.AVFilterContext = type { ptr, ptr, ptr, ptr, ptr, i32, ptr, ptr, i32, ptr, ptr, i32, i32, ptr, ptr, ptr, ptr, i32, ptr, i32, i32 }
%struct.XFadeContext = type { ptr, i32, i64, i64, ptr, i32, i32, i32, i64, i64, i64, i64, i32, [2 x i32], [2 x ptr], i32, [4 x i16], [4 x i16], ptr, ptr }
%struct.AVRational = type { i32, i32 }
%struct.AVFrame = type { [8 x ptr], [8 x i32], ptr, i32, i32, i32, i32, i32, %struct.AVRational, i64, i64, %struct.AVRational, i32, ptr, i32, i32, [8 x ptr], ptr, i32, ptr, i32, i32, i32, i32, i32, i32, i32, i64, ptr, i32, ptr, ptr, i64, i64, i64, i64, ptr, %struct.AVChannelLayout, i64 }
%struct.AVChannelLayout = type { i32, i32, %union.anon.1, ptr }
%union.anon.1 = type { i64 }

; Function Attrs: nounwind uwtable
define internal void @wipetl16_transition(ptr noundef %0, ptr noundef %1, ptr noundef %2, ptr noundef %3, float noundef %4, i32 noundef %5, i32 noundef %6, i32 noundef %7) #1 {
  %9 = alloca ptr, align 8
  %10 = alloca ptr, align 8
  %11 = alloca ptr, align 8
  %12 = alloca ptr, align 8
  %13 = alloca float, align 4
  %14 = alloca i32, align 4
  %15 = alloca i32, align 4
  %16 = alloca i32, align 4
  %17 = alloca ptr, align 8
  %18 = alloca i32, align 4
  %19 = alloca i32, align 4
  %20 = alloca i32, align 4
  %21 = alloca i32, align 4
  %22 = alloca i32, align 4
  %23 = alloca i32, align 4
  %24 = alloca ptr, align 8
  %25 = alloca ptr, align 8
  %26 = alloca ptr, align 8
  %27 = alloca i32, align 4
  %28 = alloca i32, align 4
  store ptr %0, ptr %9, align 8, !tbaa !4
  store ptr %1, ptr %10, align 8, !tbaa !36
  store ptr %2, ptr %11, align 8, !tbaa !36
  store ptr %3, ptr %12, align 8, !tbaa !36
  store float %4, ptr %13, align 4, !tbaa !90
  store i32 %5, ptr %14, align 4, !tbaa !32
  store i32 %6, ptr %15, align 4, !tbaa !32
  store i32 %7, ptr %16, align 4, !tbaa !32
  call void @llvm.lifetime.start.p0(i64 8, ptr %17) #10
  %29 = load ptr, ptr %9, align 8, !tbaa !4
  %30 = getelementptr inbounds nuw %struct.AVFilterContext, ptr %29, i32 0, i32 9
  %31 = load ptr, ptr %30, align 8, !tbaa !9
  store ptr %31, ptr %17, align 8, !tbaa !22
  call void @llvm.lifetime.start.p0(i64 4, ptr %18) #10
  %32 = load i32, ptr %15, align 4, !tbaa !32
  %33 = load i32, ptr %14, align 4, !tbaa !32
  %34 = sub nsw i32 %32, %33
  store i32 %34, ptr %18, align 4, !tbaa !32
  call void @llvm.lifetime.start.p0(i64 4, ptr %19) #10
  %35 = load ptr, ptr %12, align 8, !tbaa !36
  %36 = getelementptr inbounds nuw %struct.AVFrame, ptr %35, i32 0, i32 3
  %37 = load i32, ptr %36, align 8, !tbaa !92
  store i32 %37, ptr %19, align 4, !tbaa !32
  call void @llvm.lifetime.start.p0(i64 4, ptr %20) #10
  %38 = load ptr, ptr %12, align 8, !tbaa !36
  %39 = getelementptr inbounds nuw %struct.AVFrame, ptr %38, i32 0, i32 3
  %40 = load i32, ptr %39, align 8, !tbaa !92
  %41 = sitofp i32 %40 to float
  %42 = load float, ptr %13, align 4, !tbaa !90
  %43 = fmul nsz float %41, %42
  %44 = fptosi float %43 to i32
  store i32 %44, ptr %20, align 4, !tbaa !32
  call void @llvm.lifetime.start.p0(i64 4, ptr %21) #10
  %45 = load ptr, ptr %12, align 8, !tbaa !36
  %46 = getelementptr inbounds nuw %struct.AVFrame, ptr %45, i32 0, i32 4
  %47 = load i32, ptr %46, align 4, !tbaa !95
  %48 = sitofp i32 %47 to float
  %49 = load float, ptr %13, align 4, !tbaa !90
  %50 = fmul nsz float %48, %49
  %51 = fptosi float %50 to i32
  store i32 %51, ptr %21, align 4, !tbaa !32
  call void @llvm.lifetime.start.p0(i64 4, ptr %22) #10
  store i32 0, ptr %22, align 4, !tbaa !32
  br label %52

52:                                               ; preds = %188, %8
  %53 = load i32, ptr %22, align 4, !tbaa !32
  %54 = load ptr, ptr %17, align 8, !tbaa !22
  %55 = getelementptr inbounds nuw %struct.XFadeContext, ptr %54, i32 0, i32 5
  %56 = load i32, ptr %55, align 8, !tbaa !82
  %57 = icmp slt i32 %53, %56
  br i1 %57, label %59, label %58

58:                                               ; preds = %52
  store i32 2, ptr %23, align 4
  call void @llvm.lifetime.end.p0(i64 4, ptr %22) #10
  br label %191

59:                                               ; preds = %52
  call void @llvm.lifetime.start.p0(i64 8, ptr %24) #10
  %60 = load ptr, ptr %10, align 8, !tbaa !36
  %61 = getelementptr inbounds nuw %struct.AVFrame, ptr %60, i32 0, i32 0
  %62 = load i32, ptr %22, align 4, !tbaa !32
  %63 = sext i32 %62 to i64
  %64 = getelementptr inbounds [8 x ptr], ptr %61, i64 0, i64 %63
  %65 = load ptr, ptr %64, align 8, !tbaa !96
  %66 = load i32, ptr %14, align 4, !tbaa !32
  %67 = load ptr, ptr %10, align 8, !tbaa !36
  %68 = getelementptr inbounds nuw %struct.AVFrame, ptr %67, i32 0, i32 1
  %69 = load i32, ptr %22, align 4, !tbaa !32
  %70 = sext i32 %69 to i64
  %71 = getelementptr inbounds [8 x i32], ptr %68, i64 0, i64 %70
  %72 = load i32, ptr %71, align 4, !tbaa !32
  %73 = mul nsw i32 %66, %72
  %74 = sext i32 %73 to i64
  %75 = getelementptr inbounds i8, ptr %65, i64 %74
  store ptr %75, ptr %24, align 8, !tbaa !101
  call void @llvm.lifetime.start.p0(i64 8, ptr %25) #10
  %76 = load ptr, ptr %11, align 8, !tbaa !36
  %77 = getelementptr inbounds nuw %struct.AVFrame, ptr %76, i32 0, i32 0
  %78 = load i32, ptr %22, align 4, !tbaa !32
  %79 = sext i32 %78 to i64
  %80 = getelementptr inbounds [8 x ptr], ptr %77, i64 0, i64 %79
  %81 = load ptr, ptr %80, align 8, !tbaa !96
  %82 = load i32, ptr %14, align 4, !tbaa !32
  %83 = load ptr, ptr %11, align 8, !tbaa !36
  %84 = getelementptr inbounds nuw %struct.AVFrame, ptr %83, i32 0, i32 1
  %85 = load i32, ptr %22, align 4, !tbaa !32
  %86 = sext i32 %85 to i64
  %87 = getelementptr inbounds [8 x i32], ptr %84, i64 0, i64 %86
  %88 = load i32, ptr %87, align 4, !tbaa !32
  %89 = mul nsw i32 %82, %88
  %90 = sext i32 %89 to i64
  %91 = getelementptr inbounds i8, ptr %81, i64 %90
  store ptr %91, ptr %25, align 8, !tbaa !101
  call void @llvm.lifetime.start.p0(i64 8, ptr %26) #10
  %92 = load ptr, ptr %12, align 8, !tbaa !36
  %93 = getelementptr inbounds nuw %struct.AVFrame, ptr %92, i32 0, i32 0
  %94 = load i32, ptr %22, align 4, !tbaa !32
  %95 = sext i32 %94 to i64
  %96 = getelementptr inbounds [8 x ptr], ptr %93, i64 0, i64 %95
  %97 = load ptr, ptr %96, align 8, !tbaa !96
  %98 = load i32, ptr %14, align 4, !tbaa !32
  %99 = load ptr, ptr %12, align 8, !tbaa !36
  %100 = getelementptr inbounds nuw %struct.AVFrame, ptr %99, i32 0, i32 1
  %101 = load i32, ptr %22, align 4, !tbaa !32
  %102 = sext i32 %101 to i64
  %103 = getelementptr inbounds [8 x i32], ptr %100, i64 0, i64 %102
  %104 = load i32, ptr %103, align 4, !tbaa !32
  %105 = mul nsw i32 %98, %104
  %106 = sext i32 %105 to i64
  %107 = getelementptr inbounds i8, ptr %97, i64 %106
  store ptr %107, ptr %26, align 8, !tbaa !101
  call void @llvm.lifetime.start.p0(i64 4, ptr %27) #10
  store i32 0, ptr %27, align 4, !tbaa !32
  br label %108

108:                                              ; preds = %184, %59
  %109 = load i32, ptr %27, align 4, !tbaa !32
  %110 = load i32, ptr %18, align 4, !tbaa !32
  %111 = icmp slt i32 %109, %110
  br i1 %111, label %113, label %112

112:                                              ; preds = %108
  store i32 5, ptr %23, align 4
  call void @llvm.lifetime.end.p0(i64 4, ptr %27) #10
  br label %187

113:                                              ; preds = %108
  call void @llvm.lifetime.start.p0(i64 4, ptr %28) #10
  store i32 0, ptr %28, align 4, !tbaa !32
  br label %114

114:                                              ; preds = %150, %113
  %115 = load i32, ptr %28, align 4, !tbaa !32
  %116 = load i32, ptr %19, align 4, !tbaa !32
  %117 = icmp slt i32 %115, %116
  br i1 %117, label %119, label %118

118:                                              ; preds = %114
  store i32 8, ptr %23, align 4
  call void @llvm.lifetime.end.p0(i64 4, ptr %28) #10
  br label %153

119:                                              ; preds = %114
  %120 = load i32, ptr %14, align 4, !tbaa !32
  %121 = load i32, ptr %27, align 4, !tbaa !32
  %122 = add nsw i32 %120, %121
  %123 = load i32, ptr %21, align 4, !tbaa !32
  %124 = icmp sle i32 %122, %123
  br i1 %124, label %125, label %136

125:                                              ; preds = %119
  %126 = load i32, ptr %28, align 4, !tbaa !32
  %127 = load i32, ptr %20, align 4, !tbaa !32
  %128 = icmp sle i32 %126, %127
  br i1 %128, label %129, label %136

129:                                              ; preds = %125
  %130 = load ptr, ptr %24, align 8, !tbaa !101
  %131 = load i32, ptr %28, align 4, !tbaa !32
  %132 = sext i32 %131 to i64
  %133 = getelementptr inbounds i16, ptr %130, i64 %132
  %134 = load i16, ptr %133, align 2, !tbaa !84
  %135 = zext i16 %134 to i32
  br label %143

136:                                              ; preds = %125, %119
  %137 = load ptr, ptr %25, align 8, !tbaa !101
  %138 = load i32, ptr %28, align 4, !tbaa !32
  %139 = sext i32 %138 to i64
  %140 = getelementptr inbounds i16, ptr %137, i64 %139
  %141 = load i16, ptr %140, align 2, !tbaa !84
  %142 = zext i16 %141 to i32
  br label %143

143:                                              ; preds = %136, %129
  %144 = phi i32 [ %135, %129 ], [ %142, %136 ]
  %145 = trunc i32 %144 to i16
  %146 = load ptr, ptr %26, align 8, !tbaa !101
  %147 = load i32, ptr %28, align 4, !tbaa !32
  %148 = sext i32 %147 to i64
  %149 = getelementptr inbounds i16, ptr %146, i64 %148
  store i16 %145, ptr %149, align 2, !tbaa !84
  br label %150

150:                                              ; preds = %143
  %151 = load i32, ptr %28, align 4, !tbaa !32
  %152 = add nsw i32 %151, 1
  store i32 %152, ptr %28, align 4, !tbaa !32
  br label %114, !llvm.loop !337

153:                                              ; preds = %118
  %154 = load ptr, ptr %12, align 8, !tbaa !36
  %155 = getelementptr inbounds nuw %struct.AVFrame, ptr %154, i32 0, i32 1
  %156 = load i32, ptr %22, align 4, !tbaa !32
  %157 = sext i32 %156 to i64
  %158 = getelementptr inbounds [8 x i32], ptr %155, i64 0, i64 %157
  %159 = load i32, ptr %158, align 4, !tbaa !32
  %160 = sdiv i32 %159, 2
  %161 = load ptr, ptr %26, align 8, !tbaa !101
  %162 = sext i32 %160 to i64
  %163 = getelementptr inbounds i16, ptr %161, i64 %162
  store ptr %163, ptr %26, align 8, !tbaa !101
  %164 = load ptr, ptr %10, align 8, !tbaa !36
  %165 = getelementptr inbounds nuw %struct.AVFrame, ptr %164, i32 0, i32 1
  %166 = load i32, ptr %22, align 4, !tbaa !32
  %167 = sext i32 %166 to i64
  %168 = getelementptr inbounds [8 x i32], ptr %165, i64 0, i64 %167
  %169 = load i32, ptr %168, align 4, !tbaa !32
  %170 = sdiv i32 %169, 2
  %171 = load ptr, ptr %24, align 8, !tbaa !101
  %172 = sext i32 %170 to i64
  %173 = getelementptr inbounds i16, ptr %171, i64 %172
  store ptr %173, ptr %24, align 8, !tbaa !101
  %174 = load ptr, ptr %11, align 8, !tbaa !36
  %175 = getelementptr inbounds nuw %struct.AVFrame, ptr %174, i32 0, i32 1
  %176 = load i32, ptr %22, align 4, !tbaa !32
  %177 = sext i32 %176 to i64
  %178 = getelementptr inbounds [8 x i32], ptr %175, i64 0, i64 %177
  %179 = load i32, ptr %178, align 4, !tbaa !32
  %180 = sdiv i32 %179, 2
  %181 = load ptr, ptr %25, align 8, !tbaa !101
  %182 = sext i32 %180 to i64
  %183 = getelementptr inbounds i16, ptr %181, i64 %182
  store ptr %183, ptr %25, align 8, !tbaa !101
  br label %184

184:                                              ; preds = %153
  %185 = load i32, ptr %27, align 4, !tbaa !32
  %186 = add nsw i32 %185, 1
  store i32 %186, ptr %27, align 4, !tbaa !32
  br label %108, !llvm.loop !338

187:                                              ; preds = %112
  call void @llvm.lifetime.end.p0(i64 8, ptr %26) #10
  call void @llvm.lifetime.end.p0(i64 8, ptr %25) #10
  call void @llvm.lifetime.end.p0(i64 8, ptr %24) #10
  br label %188

188:                                              ; preds = %187
  %189 = load i32, ptr %22, align 4, !tbaa !32
  %190 = add nsw i32 %189, 1
  store i32 %190, ptr %22, align 4, !tbaa !32
  br label %52, !llvm.loop !339

191:                                              ; preds = %58
  call void @llvm.lifetime.end.p0(i64 4, ptr %21) #10
  call void @llvm.lifetime.end.p0(i64 4, ptr %20) #10
  call void @llvm.lifetime.end.p0(i64 4, ptr %19) #10
  call void @llvm.lifetime.end.p0(i64 4, ptr %18) #10
  call void @llvm.lifetime.end.p0(i64 8, ptr %17) #10
  ret void
}