; Function Attrs: nofree norecurse nosync nounwind memory(readwrite, inaccessiblemem: none) uwtable
define internal void @wipetl16_transition(ptr noundef readonly captures(none) %0, ptr noundef readonly captures(none) %1, ptr noundef readonly captures(none) %2, ptr noundef readonly captures(none) %3, float noundef %4, i32 noundef %5, i32 noundef %6, i32 %7) #6 {
  %9 = getelementptr inbounds nuw i8, ptr %0, i64 72
  %10 = load ptr, ptr %9, align 8, !tbaa !4
  %11 = sub i32 %6, %5
  %12 = getelementptr inbounds nuw i8, ptr %3, i64 104
  %13 = load i32, ptr %12, align 8, !tbaa !85
  %14 = sitofp i32 %13 to float
  %15 = fmul nsz float %4, %14
  %16 = fptosi float %15 to i32
  %17 = getelementptr inbounds nuw i8, ptr %3, i64 108
  %18 = load i32, ptr %17, align 4, !tbaa !88
  %19 = sitofp i32 %18 to float
  %20 = fmul nsz float %4, %19
  %21 = fptosi float %20 to i32
  %22 = getelementptr inbounds nuw i8, ptr %10, i64 40
  %23 = load i32, ptr %22, align 8, !tbaa !77
  %24 = icmp sgt i32 %23, 0
  br i1 %24, label %.lr.ph, label %._crit_edge

.lr.ph:                                           ; preds = %8
  %25 = getelementptr inbounds nuw i8, ptr %1, i64 64
  %26 = getelementptr inbounds nuw i8, ptr %2, i64 64
  %27 = getelementptr inbounds nuw i8, ptr %3, i64 64
  %28 = icmp sgt i32 %11, 0
  %29 = icmp sgt i32 %13, 0
  %or.cond = select i1 %28, i1 %29, i1 false
  br i1 %or.cond, label %.preheader.lr.ph.us.us.preheader, label %._crit_edge

.preheader.lr.ph.us.us.preheader:                 ; preds = %.lr.ph
  %30 = sext i32 %16 to i64
  %wide.trip.count93 = zext nneg i32 %23 to i64
  %wide.trip.count = zext nneg i32 %13 to i64
  %wide.trip.count87 = zext nneg i32 %13 to i64
  br label %.preheader.lr.ph.us.us

.preheader.lr.ph.us.us:                           ; preds = %.preheader.lr.ph.us.us.preheader, %._crit_edge66.split.us.us.us
  %indvars.iv90 = phi i64 [ 0, %.preheader.lr.ph.us.us.preheader ], [ %indvars.iv.next91, %._crit_edge66.split.us.us.us ]
  %31 = getelementptr inbounds nuw [8 x ptr], ptr %1, i64 0, i64 %indvars.iv90
  %32 = load ptr, ptr %31, align 8, !tbaa !89
  %33 = getelementptr inbounds nuw [8 x i32], ptr %25, i64 0, i64 %indvars.iv90
  %34 = load i32, ptr %33, align 4, !tbaa !31
  %35 = mul nsw i32 %34, %5
  %36 = sext i32 %35 to i64
  %37 = getelementptr inbounds i8, ptr %32, i64 %36
  %38 = getelementptr inbounds nuw [8 x ptr], ptr %2, i64 0, i64 %indvars.iv90
  %39 = load ptr, ptr %38, align 8, !tbaa !89
  %40 = getelementptr inbounds nuw [8 x i32], ptr %26, i64 0, i64 %indvars.iv90
  %41 = load i32, ptr %40, align 4, !tbaa !31
  %42 = mul nsw i32 %41, %5
  %43 = sext i32 %42 to i64
  %44 = getelementptr inbounds i8, ptr %39, i64 %43
  %45 = getelementptr inbounds nuw [8 x ptr], ptr %3, i64 0, i64 %indvars.iv90
  %46 = load ptr, ptr %45, align 8, !tbaa !89
  %47 = getelementptr inbounds nuw [8 x i32], ptr %27, i64 0, i64 %indvars.iv90
  %48 = load i32, ptr %47, align 4, !tbaa !31
  %49 = mul nsw i32 %48, %5
  %50 = sext i32 %49 to i64
  %51 = getelementptr inbounds i8, ptr %46, i64 %50
  %52 = sdiv i32 %48, 2
  %53 = sext i32 %52 to i64
  %54 = sdiv i32 %34, 2
  %55 = sext i32 %54 to i64
  %56 = sdiv i32 %41, 2
  %57 = sext i32 %56 to i64
  br label %.preheader.us.us.us

.preheader.us.us.us:                              ; preds = %._crit_edge.us.us.us, %.preheader.lr.ph.us.us
  %.05165.us.us.us = phi i32 [ 0, %.preheader.lr.ph.us.us ], [ %63, %._crit_edge.us.us.us ]
  %.05263.us.us.us = phi ptr [ %51, %.preheader.lr.ph.us.us ], [ %60, %._crit_edge.us.us.us ]
  %.05361.us.us.us = phi ptr [ %44, %.preheader.lr.ph.us.us ], [ %62, %._crit_edge.us.us.us ]
  %.05459.us.us.us = phi ptr [ %37, %.preheader.lr.ph.us.us ], [ %61, %._crit_edge.us.us.us ]
  %58 = add nsw i32 %.05165.us.us.us, %5
  %.not.us.us.us = icmp sgt i32 %58, %21
  %.not.fr.us.us.us = freeze i1 %.not.us.us.us
  br i1 %.not.fr.us.us.us, label %.lr.ph.split.us.us.us.us, label %.lr.ph.split.us71.us.us

.lr.ph.split.us71.us.us:                          ; preds = %.preheader.us.us.us, %.lr.ph.split.us71.us.us
  %indvars.iv = phi i64 [ %indvars.iv.next, %.lr.ph.split.us71.us.us ], [ 0, %.preheader.us.us.us ]
  %.not56.us.us.us = icmp sgt i64 %indvars.iv, %30
  %spec.select = select i1 %.not56.us.us.us, ptr %.05361.us.us.us, ptr %.05459.us.us.us
  %.in.in.us69.us.us = getelementptr inbounds nuw i16, ptr %spec.select, i64 %indvars.iv
  %.in57.us70.us.us = load i16, ptr %.in.in.us69.us.us, align 2, !tbaa !79
  %59 = getelementptr inbounds nuw i16, ptr %.05263.us.us.us, i64 %indvars.iv
  store i16 %.in57.us70.us.us, ptr %59, align 2, !tbaa !79
  %indvars.iv.next = add nuw nsw i64 %indvars.iv, 1
  %exitcond.not = icmp eq i64 %indvars.iv.next, %wide.trip.count
  br i1 %exitcond.not, label %._crit_edge.us.us.us, label %.lr.ph.split.us71.us.us, !llvm.loop !329

._crit_edge.us.us.us:                             ; preds = %.lr.ph.split.us71.us.us, %.lr.ph.split.us.us.us.us
  %60 = getelementptr inbounds i16, ptr %.05263.us.us.us, i64 %53
  %61 = getelementptr inbounds i16, ptr %.05459.us.us.us, i64 %55
  %62 = getelementptr inbounds i16, ptr %.05361.us.us.us, i64 %57
  %63 = add nuw nsw i32 %.05165.us.us.us, 1
  %exitcond89.not = icmp eq i32 %63, %11
  br i1 %exitcond89.not, label %._crit_edge66.split.us.us.us, label %.preheader.us.us.us, !llvm.loop !330

.lr.ph.split.us.us.us.us:                         ; preds = %.preheader.us.us.us, %.lr.ph.split.us.us.us.us
  %indvars.iv84 = phi i64 [ %indvars.iv.next85, %.lr.ph.split.us.us.us.us ], [ 0, %.preheader.us.us.us ]
  %.in.in.us.us.us.us = getelementptr inbounds nuw i16, ptr %.05361.us.us.us, i64 %indvars.iv84
  %.in57.us.us.us.us = load i16, ptr %.in.in.us.us.us.us, align 2, !tbaa !79
  %64 = getelementptr inbounds nuw i16, ptr %.05263.us.us.us, i64 %indvars.iv84
  store i16 %.in57.us.us.us.us, ptr %64, align 2, !tbaa !79
  %indvars.iv.next85 = add nuw nsw i64 %indvars.iv84, 1
  %exitcond88.not = icmp eq i64 %indvars.iv.next85, %wide.trip.count87
  br i1 %exitcond88.not, label %._crit_edge.us.us.us, label %.lr.ph.split.us.us.us.us, !llvm.loop !329

._crit_edge66.split.us.us.us:                     ; preds = %._crit_edge.us.us.us
  %indvars.iv.next91 = add nuw nsw i64 %indvars.iv90, 1
  %exitcond94.not = icmp eq i64 %indvars.iv.next91, %wide.trip.count93
  br i1 %exitcond94.not, label %._crit_edge, label %.preheader.lr.ph.us.us, !llvm.loop !331

._crit_edge:                                      ; preds = %._crit_edge66.split.us.us.us, %.lr.ph, %8
  ret void
}